target datalayout = "e-m:e-p270:32:32-p271:32:32-p272:64:64-i64:64-i128:128-f80:128-n8:16:32:64-S128"
target triple = "x86_64-pc-linux-gnu"

%"class.std::__shared_count" = type { ptr }
%"class.std::__shared_ptr.96" = type { ptr, %"class.std::__shared_count" }
%"class.dropbox::oxygen::nn.339" = type { %"class.std::shared_ptr.340" }
%"class.std::shared_ptr.340" = type { %"class.std::__shared_ptr.341" }
%"class.std::__shared_ptr.341" = type { ptr, %"class.std::__shared_count" }
%"struct.std::_Vector_base.352" = type { %"struct.std::_Vector_base<dropbox::oxygen::nn<std::shared_ptr<osgeo::proj::cs::CoordinateSystemAxis>>, std::allocator<dropbox::oxygen::nn<std::shared_ptr<osgeo::proj::cs::CoordinateSystemAxis>>>>::_Vector_impl" }
%"struct.std::_Vector_base<dropbox::oxygen::nn<std::shared_ptr<osgeo::proj::cs::CoordinateSystemAxis>>, std::allocator<dropbox::oxygen::nn<std::shared_ptr<osgeo::proj::cs::CoordinateSystemAxis>>>>::_Vector_impl" = type { %"struct.std::_Vector_base<dropbox::oxygen::nn<std::shared_ptr<osgeo::proj::cs::CoordinateSystemAxis>>, std::allocator<dropbox::oxygen::nn<std::shared_ptr<osgeo::proj::cs::CoordinateSystemAxis>>>>::_Vector_impl_data" }
%"struct.std::_Vector_base<dropbox::oxygen::nn<std::shared_ptr<osgeo::proj::cs::CoordinateSystemAxis>>, std::allocator<dropbox::oxygen::nn<std::shared_ptr<osgeo::proj::cs::CoordinateSystemAxis>>>>::_Vector_impl_data" = type { ptr, ptr, ptr }
%"class.dropbox::oxygen::nn.372" = type { %"class.std::shared_ptr.373" }
%"class.std::shared_ptr.373" = type { %"class.std::__shared_ptr.374" }
%"class.std::__shared_ptr.374" = type { ptr, %"class.std::__shared_count" }

@_ZTIN5osgeo4proj3crs3CRSE = external constant ptr
@_ZTIN5osgeo4proj3crs11CompoundCRSE = external constant ptr
@_ZTIN5osgeo4proj3crs11GeodeticCRSE = external constant ptr
@_ZTIN5osgeo4proj3crs12ProjectedCRSE = external constant ptr

; Function Attrs: mustprogress nounwind uwtable
define linkonce_odr dso_local noundef ptr @_ZNKSt12__shared_ptrIN5osgeo4proj2cs11CartesianCSELN9__gnu_cxx12_Lock_policyE2EE3getEv(ptr noundef nonnull align 8 dereferenceable(16) %0) #6 comdat align 2 {
  %2 = alloca ptr, align 8
  store ptr %0, ptr %2, align 8
  %3 = load ptr, ptr %2, align 8
  %4 = getelementptr inbounds %"class.std::__shared_ptr.374", ptr %3, i32 0, i32 0
  %5 = load ptr, ptr %4, align 8
  ret ptr %5
}

; Function Attrs: mustprogress nounwind uwtable
define linkonce_odr dso_local noundef ptr @_ZNKSt12__shared_ptrIN5osgeo4proj2cs16CoordinateSystemELN9__gnu_cxx12_Lock_policyE2EE3getEv(ptr noundef nonnull align 8 dereferenceable(16) %0) #6 comdat align 2 {
  %2 = alloca ptr, align 8
  store ptr %0, ptr %2, align 8
  %3 = load ptr, ptr %2, align 8
  %4 = getelementptr inbounds %"class.std::__shared_ptr.341", ptr %3, i32 0, i32 0
  %5 = load ptr, ptr %4, align 8
  ret ptr %5
}

; Function Attrs: mustprogress nounwind uwtable
define linkonce_odr dso_local noundef ptr @_ZNKSt19__shared_ptr_accessIN5osgeo4proj2cs11CartesianCSELN9__gnu_cxx12_Lock_policyE2ELb0ELb0EE6_M_getEv(ptr noundef nonnull align 1 dereferenceable(1) %0) #6 comdat align 2 {
  %2 = alloca ptr, align 8
  store ptr %0, ptr %2, align 8
  %3 = load ptr, ptr %2, align 8
  %4 = call noundef ptr @_ZNKSt12__shared_ptrIN5osgeo4proj2cs11CartesianCSELN9__gnu_cxx12_Lock_policyE2EE3getEv(ptr noundef nonnull align 8 dereferenceable(16) %3) #3
  ret ptr %4
}

; Function Attrs: mustprogress nounwind uwtable
define linkonce_odr dso_local noundef ptr @_ZNKSt19__shared_ptr_accessIN5osgeo4proj2cs16CoordinateSystemELN9__gnu_cxx12_Lock_policyE2ELb0ELb0EE6_M_getEv(ptr noundef nonnull align 1 dereferenceable(1) %0) #6 comdat align 2 {
  %2 = alloca ptr, align 8
  store ptr %0, ptr %2, align 8
  %3 = load ptr, ptr %2, align 8
  %4 = call noundef ptr @_ZNKSt12__shared_ptrIN5osgeo4proj2cs16CoordinateSystemELN9__gnu_cxx12_Lock_policyE2EE3getEv(ptr noundef nonnull align 8 dereferenceable(16) %3) #3
  ret ptr %4
}

; Function Attrs: mustprogress nounwind uwtable
define linkonce_odr dso_local noundef nonnull align 8 dereferenceable(56) ptr @_ZNKSt19__shared_ptr_accessIN5osgeo4proj2cs11CartesianCSELN9__gnu_cxx12_Lock_policyE2ELb0ELb0EEdeEv(ptr noundef nonnull align 1 dereferenceable(1) %0) #6 comdat align 2 {
  %2 = alloca ptr, align 8
  store ptr %0, ptr %2, align 8
  %3 = load ptr, ptr %2, align 8
  br label %4

4:                                                ; preds = %1
  br label %5

5:                                                ; preds = %4
  br label %6

6:                                                ; preds = %5
  %7 = call noundef ptr @_ZNKSt19__shared_ptr_accessIN5osgeo4proj2cs11CartesianCSELN9__gnu_cxx12_Lock_policyE2ELb0ELb0EE6_M_getEv(ptr noundef nonnull align 1 dereferenceable(1) %3) #3
  ret ptr %7
}

; Function Attrs: mustprogress nounwind uwtable
define linkonce_odr dso_local noundef nonnull align 8 dereferenceable(56) ptr @_ZNKSt19__shared_ptr_accessIN5osgeo4proj2cs16CoordinateSystemELN9__gnu_cxx12_Lock_policyE2ELb0ELb0EEdeEv(ptr noundef nonnull align 1 dereferenceable(1) %0) #6 comdat align 2 {
  %2 = alloca ptr, align 8
  store ptr %0, ptr %2, align 8
  %3 = load ptr, ptr %2, align 8
  br label %4

4:                                                ; preds = %1
  br label %5

5:                                                ; preds = %4
  br label %6

6:                                                ; preds = %5
  %7 = call noundef ptr @_ZNKSt19__shared_ptr_accessIN5osgeo4proj2cs16CoordinateSystemELN9__gnu_cxx12_Lock_policyE2ELb0ELb0EE6_M_getEv(ptr noundef nonnull align 1 dereferenceable(1) %3) #3
  ret ptr %7
}

; Function Attrs: mustprogress nounwind uwtable
define linkonce_odr hidden noundef ptr @_ZNK7dropbox6oxygen2nnISt10shared_ptrIN5osgeo4proj2cs11CartesianCSEEEptEv(ptr noundef nonnull align 8 dereferenceable(16) %0) #6 comdat align 2 {
  %2 = alloca ptr, align 8
  store ptr %0, ptr %2, align 8
  %3 = load ptr, ptr %2, align 8
  %4 = getelementptr inbounds %"class.dropbox::oxygen::nn.372", ptr %3, i32 0, i32 0
  %5 = call noundef nonnull align 8 dereferenceable(56) ptr @_ZNKSt19__shared_ptr_accessIN5osgeo4proj2cs11CartesianCSELN9__gnu_cxx12_Lock_policyE2ELb0ELb0EEdeEv(ptr noundef nonnull align 1 dereferenceable(1) %4) #3
  ret ptr %5
}

; Function Attrs: mustprogress nounwind uwtable
define linkonce_odr hidden noundef i64 @_ZNKSt6vectorIN7dropbox6oxygen2nnISt10shared_ptrIN5osgeo4proj2cs20CoordinateSystemAxisEEEESaIS9_EE4sizeEv(ptr noundef nonnull align 8 dereferenceable(24) %0) #6 comdat align 2 {
  %2 = alloca ptr, align 8
  store ptr %0, ptr %2, align 8
  %3 = load ptr, ptr %2, align 8
  %4 = getelementptr inbounds %"struct.std::_Vector_base.352", ptr %3, i32 0, i32 0
  %5 = getelementptr inbounds %"struct.std::_Vector_base<dropbox::oxygen::nn<std::shared_ptr<osgeo::proj::cs::CoordinateSystemAxis>>, std::allocator<dropbox::oxygen::nn<std::shared_ptr<osgeo::proj::cs::CoordinateSystemAxis>>>>::_Vector_impl_data", ptr %4, i32 0, i32 1
  %6 = load ptr, ptr %5, align 8
  %7 = getelementptr inbounds %"struct.std::_Vector_base.352", ptr %3, i32 0, i32 0
  %8 = getelementptr inbounds %"struct.std::_Vector_base<dropbox::oxygen::nn<std::shared_ptr<osgeo::proj::cs::CoordinateSystemAxis>>, std::allocator<dropbox::oxygen::nn<std::shared_ptr<osgeo::proj::cs::CoordinateSystemAxis>>>>::_Vector_impl_data", ptr %7, i32 0, i32 0
  %9 = load ptr, ptr %8, align 8
  %10 = ptrtoint ptr %6 to i64
  %11 = ptrtoint ptr %9 to i64
  %12 = sub i64 %10, %11
  %13 = sdiv exact i64 %12, 16
  ret i64 %13
}

; Function Attrs: mustprogress nounwind uwtable
define linkonce_odr hidden noundef ptr @_ZNK7dropbox6oxygen2nnISt10shared_ptrIN5osgeo4proj2cs16CoordinateSystemEEEptEv(ptr noundef nonnull align 8 dereferenceable(16) %0) #6 comdat align 2 {
  %2 = alloca ptr, align 8
  store ptr %0, ptr %2, align 8
  %3 = load ptr, ptr %2, align 8
  %4 = getelementptr inbounds %"class.dropbox::oxygen::nn.339", ptr %3, i32 0, i32 0
  %5 = call noundef nonnull align 8 dereferenceable(56) ptr @_ZNKSt19__shared_ptr_accessIN5osgeo4proj2cs16CoordinateSystemELN9__gnu_cxx12_Lock_policyE2ELb0ELb0EEdeEv(ptr noundef nonnull align 1 dereferenceable(1) %4) #3
  ret ptr %5
}

; Function Attrs: mustprogress nounwind uwtable
define linkonce_odr dso_local noundef ptr @_ZNKSt12__shared_ptrIN5osgeo4proj3crs3CRSELN9__gnu_cxx12_Lock_policyE2EE3getEv(ptr noundef nonnull align 8 dereferenceable(16) %0) #6 comdat align 2 {
  %2 = alloca ptr, align 8
  store ptr %0, ptr %2, align 8
  %3 = load ptr, ptr %2, align 8
  %4 = getelementptr inbounds %"class.std::__shared_ptr.96", ptr %3, i32 0, i32 0
  %5 = load ptr, ptr %4, align 8
  ret ptr %5
}

; Function Attrs: mustprogress uwtable
define internal noundef zeroext i1 @_ZL7is3DCRSRKSt10shared_ptrIN5osgeo4proj3crs3CRSEE(ptr noundef nonnull align 8 dereferenceable(16) %0) #9 {
  %2 = alloca i1, align 1
  %3 = alloca ptr, align 8
  %4 = alloca ptr, align 8
  %5 = alloca ptr, align 8
  store ptr %0, ptr %3, align 8
  %6 = load ptr, ptr %3, align 8
  %7 = call noundef ptr @_ZNKSt12__shared_ptrIN5osgeo4proj3crs3CRSELN9__gnu_cxx12_Lock_policyE2EE3getEv(ptr noundef nonnull align 8 dereferenceable(16) %6) #3
  %8 = icmp eq ptr %7, null
  br i1 %8, label %11, label %9

9:                                                ; preds = %1
  %10 = call ptr @__dynamic_cast(ptr %7, ptr @_ZTIN5osgeo4proj3crs3CRSE, ptr @_ZTIN5osgeo4proj3crs11CompoundCRSE, i64 0) #3
  br label %12

11:                                               ; preds = %1
  br label %12

12:                                               ; preds = %11, %9
  %13 = phi ptr [ %10, %9 ], [ null, %11 ]
  %14 = icmp ne ptr %13, null
  br i1 %14, label %15, label %16

15:                                               ; preds = %12
  store i1 true, ptr %2, align 1
  br label %57

16:                                               ; preds = %12
  %17 = load ptr, ptr %3, align 8
  %18 = call noundef ptr @_ZNKSt12__shared_ptrIN5osgeo4proj3crs3CRSELN9__gnu_cxx12_Lock_policyE2EE3getEv(ptr noundef nonnull align 8 dereferenceable(16) %17) #3
  %19 = icmp eq ptr %18, null
  br i1 %19, label %22, label %20

20:                                               ; preds = %16
  %21 = call ptr @__dynamic_cast(ptr %18, ptr @_ZTIN5osgeo4proj3crs3CRSE, ptr @_ZTIN5osgeo4proj3crs11GeodeticCRSE, i64 -1) #3
  br label %23

22:                                               ; preds = %16
  br label %23

23:                                               ; preds = %22, %20
  %24 = phi ptr [ %21, %20 ], [ null, %22 ]
  store ptr %24, ptr %4, align 8
  %25 = load ptr, ptr %4, align 8
  %26 = icmp ne ptr %25, null
  br i1 %26, label %27, label %38

27:                                               ; preds = %23
  %28 = load ptr, ptr %4, align 8
  %29 = load ptr, ptr %28, align 8
  %30 = getelementptr i8, ptr %29, i64 -24
  %31 = load i64, ptr %30, align 8
  %32 = getelementptr inbounds i8, ptr %28, i64 %31
  %33 = call noundef nonnull align 8 dereferenceable(16) ptr @_ZNK5osgeo4proj3crs9SingleCRS16coordinateSystemEv(ptr noundef nonnull align 8 dereferenceable(72) %32) #11
  %34 = call noundef ptr @_ZNK7dropbox6oxygen2nnISt10shared_ptrIN5osgeo4proj2cs16CoordinateSystemEEEptEv(ptr noundef nonnull align 8 dereferenceable(16) %33)
  %35 = call noundef nonnull align 8 dereferenceable(24) ptr @_ZNK5osgeo4proj2cs16CoordinateSystem8axisListEv(ptr noundef nonnull align 8 dereferenceable(56) %34) #11
  %36 = call noundef i64 @_ZNKSt6vectorIN7dropbox6oxygen2nnISt10shared_ptrIN5osgeo4proj2cs20CoordinateSystemAxisEEEESaIS9_EE4sizeEv(ptr noundef nonnull align 8 dereferenceable(24) %35) #3
  %37 = icmp eq i64 %36, 3
  store i1 %37, ptr %2, align 1
  br label %57

38:                                               ; preds = %23
  %39 = load ptr, ptr %3, align 8
  %40 = call noundef ptr @_ZNKSt12__shared_ptrIN5osgeo4proj3crs3CRSELN9__gnu_cxx12_Lock_policyE2EE3getEv(ptr noundef nonnull align 8 dereferenceable(16) %39) #3
  %41 = icmp eq ptr %40, null
  br i1 %41, label %44, label %42

42:                                               ; preds = %38
  %43 = call ptr @__dynamic_cast(ptr %40, ptr @_ZTIN5osgeo4proj3crs3CRSE, ptr @_ZTIN5osgeo4proj3crs12ProjectedCRSE, i64 -1) #3
  br label %45

44:                                               ; preds = %38
  br label %45

45:                                               ; preds = %44, %42
  %46 = phi ptr [ %43, %42 ], [ null, %44 ]
  store ptr %46, ptr %5, align 8
  %47 = load ptr, ptr %5, align 8
  %48 = icmp ne ptr %47, null
  br i1 %48, label %49, label %56

49:                                               ; preds = %45
  %50 = load ptr, ptr %5, align 8
  %51 = call noundef nonnull align 8 dereferenceable(16) ptr @_ZNK5osgeo4proj3crs12ProjectedCRS16coordinateSystemEv(ptr noundef nonnull align 8 dereferenceable(104) %50) #11
  %52 = call noundef ptr @_ZNK7dropbox6oxygen2nnISt10shared_ptrIN5osgeo4proj2cs11CartesianCSEEEptEv(ptr noundef nonnull align 8 dereferenceable(16) %51)
  %53 = call noundef nonnull align 8 dereferenceable(24) ptr @_ZNK5osgeo4proj2cs16CoordinateSystem8axisListEv(ptr noundef nonnull align 8 dereferenceable(56) %52) #11
  %54 = call noundef i64 @_ZNKSt6vectorIN7dropbox6oxygen2nnISt10shared_ptrIN5osgeo4proj2cs20CoordinateSystemAxisEEEESaIS9_EE4sizeEv(ptr noundef nonnull align 8 dereferenceable(24) %53) #3
  %55 = icmp eq i64 %54, 3
  store i1 %55, ptr %2, align 1
  br label %57

56:                                               ; preds = %45
  store i1 false, ptr %2, align 1
  br label %57

57:                                               ; preds = %56, %49, %27, %15
  %58 = load i1, ptr %2, align 1
  ret i1 %58
}