; Function Attrs: mustprogress nofree norecurse nounwind willreturn memory(read) uwtable
define internal fastcc noundef zeroext i1 @_ZL7is3DCRSRKSt10shared_ptrIN5osgeo4proj3crs3CRSEE(ptr readonly %.0.val) unnamed_addr #21 {
  %1 = icmp eq ptr %.0.val, null
  br i1 %1, label %.thread3, label %2

2:                                                ; preds = %0
  %3 = tail call ptr @__dynamic_cast(ptr nonnull %.0.val, ptr nonnull @_ZTIN5osgeo4proj3crs3CRSE, ptr nonnull @_ZTIN5osgeo4proj3crs11CompoundCRSE, i64 0) #30
  %4 = icmp eq ptr %3, null
  br i1 %4, label %5, label %.thread3

5:                                                ; preds = %2
  %6 = tail call ptr @__dynamic_cast(ptr nonnull %.0.val, ptr nonnull @_ZTIN5osgeo4proj3crs3CRSE, ptr nonnull @_ZTIN5osgeo4proj3crs11GeodeticCRSE, i64 -1) #30
  %.not13 = icmp eq ptr %6, null
  br i1 %.not13, label %13, label %7

7:                                                ; preds = %5
  %8 = load ptr, ptr %6, align 8
  %9 = getelementptr i8, ptr %8, i64 -24
  %10 = load i64, ptr %9, align 8
  %11 = getelementptr inbounds i8, ptr %6, i64 %10
  %12 = tail call noundef nonnull align 8 dereferenceable(16) ptr @_ZNK5osgeo4proj3crs9SingleCRS16coordinateSystemEv(ptr noundef nonnull align 8 dereferenceable(72) %11) #34
  br label %.thread3.sink.split

13:                                               ; preds = %5
  %14 = tail call ptr @__dynamic_cast(ptr nonnull %.0.val, ptr nonnull @_ZTIN5osgeo4proj3crs3CRSE, ptr nonnull @_ZTIN5osgeo4proj3crs12ProjectedCRSE, i64 -1) #30
  %.not14 = icmp eq ptr %14, null
  br i1 %.not14, label %.thread3, label %15

15:                                               ; preds = %13
  %16 = tail call noundef nonnull align 8 dereferenceable(16) ptr @_ZNK5osgeo4proj3crs12ProjectedCRS16coordinateSystemEv(ptr noundef nonnull align 8 dereferenceable(104) %14) #34
  br label %.thread3.sink.split

.thread3.sink.split:                              ; preds = %7, %15
  %.sink10 = phi ptr [ %16, %15 ], [ %12, %7 ]
  %17 = load ptr, ptr %.sink10, align 8
  %18 = tail call noundef nonnull align 8 dereferenceable(24) ptr @_ZNK5osgeo4proj2cs16CoordinateSystem8axisListEv(ptr noundef nonnull align 8 dereferenceable(56) %17) #34
  %19 = getelementptr inbounds nuw i8, ptr %18, i64 8
  %20 = load ptr, ptr %19, align 8
  %21 = load ptr, ptr %18, align 8
  %22 = ptrtoint ptr %20 to i64
  %23 = ptrtoint ptr %21 to i64
  %24 = sub i64 %22, %23
  %25 = icmp eq i64 %24, 48
  br label %.thread3

.thread3:                                         ; preds = %.thread3.sink.split, %0, %13, %2
  %.0 = phi i1 [ true, %2 ], [ false, %13 ], [ false, %0 ], [ %25, %.thread3.sink.split ]
  ret i1 %.0
}